; ModuleID = '55/455.c'
source_filename = "55/455.c"
target datalayout = "e-m:e-p270:32:32-p271:32:32-p272:64:64-i64:64-f80:128-n8:16:32:64-S128"
target triple = "x86_64-pc-linux-gnu"

@.str = private unnamed_addr constant [9 x i8] c"%d %s %d\00", align 1
@.str.1 = private unnamed_addr constant [2 x i8] c"0\00", align 1
@.str.2 = private unnamed_addr constant [3 x i8] c"%c\00", align 1
@.str.3 = private unnamed_addr constant [2 x i8] c"\0A\00", align 1

; Function Attrs: noinline nounwind uwtable
define dso_local void @main() #0 {
  %1 = alloca i32, align 4
  %2 = alloca i32, align 4
  %3 = alloca i32, align 4
  %4 = alloca i32, align 4
  %5 = alloca i32, align 4
  %6 = alloca i64, align 8
  %7 = alloca [100 x i8], align 16
  %8 = alloca [100 x i8], align 16
  store i64 0, i64* %6, align 8
  %9 = getelementptr inbounds [100 x i8], [100 x i8]* %7, i64 0, i64 0
  %10 = call i32 (i8*, ...) @__isoc99_scanf(i8* getelementptr inbounds ([9 x i8], [9 x i8]* @.str, i64 0, i64 0), i32* %2, i8* %9, i32* %3)
  %11 = getelementptr inbounds [100 x i8], [100 x i8]* %7, i64 0, i64 0
  %12 = call i64 @strlen(i8* %11) #3
  %13 = trunc i64 %12 to i32
  store i32 %13, i32* %1, align 4
  store i32 0, i32* %4, align 4
  br label %14

14:                                               ; preds = %70, %0
  %15 = load i32, i32* %4, align 4
  %16 = load i32, i32* %1, align 4
  %17 = icmp slt i32 %15, %16
  br i1 %17, label %18, label %73

18:                                               ; preds = %14
  %19 = load i32, i32* %4, align 4
  %20 = sext i32 %19 to i64
  %21 = getelementptr inbounds [100 x i8], [100 x i8]* %7, i64 0, i64 %20
  %22 = load i8, i8* %21, align 1
  %23 = sext i8 %22 to i32
  %24 = icmp slt i32 %23, 58
  br i1 %24, label %25, label %37

25:                                               ; preds = %18
  %26 = load i32, i32* %2, align 4
  %27 = sext i32 %26 to i64
  %28 = load i64, i64* %6, align 8
  %29 = mul nsw i64 %27, %28
  %30 = load i32, i32* %4, align 4
  %31 = sext i32 %30 to i64
  %32 = getelementptr inbounds [100 x i8], [100 x i8]* %7, i64 0, i64 %31
  %33 = load i8, i8* %32, align 1
  %34 = sext i8 %33 to i64
  %35 = add nsw i64 %29, %34
  %36 = sub nsw i64 %35, 48
  store i64 %36, i64* %6, align 8
  br label %69

37:                                               ; preds = %18
  %38 = load i32, i32* %4, align 4
  %39 = sext i32 %38 to i64
  %40 = getelementptr inbounds [100 x i8], [100 x i8]* %7, i64 0, i64 %39
  %41 = load i8, i8* %40, align 1
  %42 = sext i8 %41 to i32
  %43 = icmp sgt i32 %42, 96
  br i1 %43, label %44, label %56

44:                                               ; preds = %37
  %45 = load i32, i32* %2, align 4
  %46 = sext i32 %45 to i64
  %47 = load i64, i64* %6, align 8
  %48 = mul nsw i64 %46, %47
  %49 = load i32, i32* %4, align 4
  %50 = sext i32 %49 to i64
  %51 = getelementptr inbounds [100 x i8], [100 x i8]* %7, i64 0, i64 %50
  %52 = load i8, i8* %51, align 1
  %53 = sext i8 %52 to i64
  %54 = add nsw i64 %48, %53
  %55 = sub nsw i64 %54, 87
  store i64 %55, i64* %6, align 8
  br label %68

56:                                               ; preds = %37
  %57 = load i32, i32* %2, align 4
  %58 = sext i32 %57 to i64
  %59 = load i64, i64* %6, align 8
  %60 = mul nsw i64 %58, %59
  %61 = load i32, i32* %4, align 4
  %62 = sext i32 %61 to i64
  %63 = getelementptr inbounds [100 x i8], [100 x i8]* %7, i64 0, i64 %62
  %64 = load i8, i8* %63, align 1
  %65 = sext i8 %64 to i64
  %66 = add nsw i64 %60, %65
  %67 = sub nsw i64 %66, 55
  store i64 %67, i64* %6, align 8
  br label %68

68:                                               ; preds = %56, %44
  br label %69

69:                                               ; preds = %68, %25
  br label %70

70:                                               ; preds = %69
  %71 = load i32, i32* %4, align 4
  %72 = add nsw i32 %71, 1
  store i32 %72, i32* %4, align 4
  br label %14

73:                                               ; preds = %14
  store i32 0, i32* %4, align 4
  br label %74

74:                                               ; preds = %113, %73
  %75 = load i64, i64* %6, align 8
  %76 = icmp ne i64 %75, 0
  br i1 %76, label %77, label %116

77:                                               ; preds = %74
  %78 = load i64, i64* %6, align 8
  %79 = load i32, i32* %3, align 4
  %80 = sext i32 %79 to i64
  %81 = srem i64 %78, %80
  %82 = icmp slt i64 %81, 10
  br i1 %82, label %83, label %93

83:                                               ; preds = %77
  %84 = load i64, i64* %6, align 8
  %85 = load i32, i32* %3, align 4
  %86 = sext i32 %85 to i64
  %87 = srem i64 %84, %86
  %88 = add nsw i64 %87, 48
  %89 = trunc i64 %88 to i8
  %90 = load i32, i32* %4, align 4
  %91 = sext i32 %90 to i64
  %92 = getelementptr inbounds [100 x i8], [100 x i8]* %8, i64 0, i64 %91
  store i8 %89, i8* %92, align 1
  br label %103

93:                                               ; preds = %77
  %94 = load i64, i64* %6, align 8
  %95 = load i32, i32* %3, align 4
  %96 = sext i32 %95 to i64
  %97 = srem i64 %94, %96
  %98 = add nsw i64 %97, 55
  %99 = trunc i64 %98 to i8
  %100 = load i32, i32* %4, align 4
  %101 = sext i32 %100 to i64
  %102 = getelementptr inbounds [100 x i8], [100 x i8]* %8, i64 0, i64 %101
  store i8 %99, i8* %102, align 1
  br label %103

103:                                              ; preds = %93, %83
  %104 = load i64, i64* %6, align 8
  %105 = load i64, i64* %6, align 8
  %106 = load i32, i32* %3, align 4
  %107 = sext i32 %106 to i64
  %108 = srem i64 %105, %107
  %109 = sub nsw i64 %104, %108
  %110 = load i32, i32* %3, align 4
  %111 = sext i32 %110 to i64
  %112 = sdiv i64 %109, %111
  store i64 %112, i64* %6, align 8
  br label %113

113:                                              ; preds = %103
  %114 = load i32, i32* %4, align 4
  %115 = add nsw i32 %114, 1
  store i32 %115, i32* %4, align 4
  br label %74

116:                                              ; preds = %74
  %117 = load i32, i32* %4, align 4
  %118 = icmp eq i32 %117, 0
  br i1 %118, label %119, label %121

119:                                              ; preds = %116
  %120 = call i32 (i8*, ...) @printf(i8* getelementptr inbounds ([2 x i8], [2 x i8]* @.str.1, i64 0, i64 0))
  br label %121

121:                                              ; preds = %119, %116
  %122 = load i32, i32* %4, align 4
  %123 = sub nsw i32 %122, 1
  store i32 %123, i32* %5, align 4
  br label %124

124:                                              ; preds = %134, %121
  %125 = load i32, i32* %5, align 4
  %126 = icmp sge i32 %125, 0
  br i1 %126, label %127, label %137

127:                                              ; preds = %124
  %128 = load i32, i32* %5, align 4
  %129 = sext i32 %128 to i64
  %130 = getelementptr inbounds [100 x i8], [100 x i8]* %8, i64 0, i64 %129
  %131 = load i8, i8* %130, align 1
  %132 = sext i8 %131 to i32
  %133 = call i32 (i8*, ...) @printf(i8* getelementptr inbounds ([3 x i8], [3 x i8]* @.str.2, i64 0, i64 0), i32 %132)
  br label %134

134:                                              ; preds = %127
  %135 = load i32, i32* %5, align 4
  %136 = add nsw i32 %135, -1
  store i32 %136, i32* %5, align 4
  br label %124

137:                                              ; preds = %124
  %138 = call i32 (i8*, ...) @printf(i8* getelementptr inbounds ([2 x i8], [2 x i8]* @.str.3, i64 0, i64 0))
  ret void
}

declare dso_local i32 @__isoc99_scanf(i8*, ...) #1

; Function Attrs: nounwind readonly
declare dso_local i64 @strlen(i8*) #2

declare dso_local i32 @printf(i8*, ...) #1


!llvm.module.flags = !{!0}
!llvm.ident = !{!1}

!0 = !{i32 1, !"wchar_size", i32 4}
!1 = !{!"clang version 10.0.0-4ubuntu1 "}
